Certificate:
    Data:
        Version: 3 (0x2)
        Serial Number:
            f4:13:62:9b:1d:72:98:97
    Signature Algorithm: sha1WithRSAEncryption
        Issuer: CN = portal.eiscat-aarc.local
        Validity
            Not Before: Nov  5 15:37:22 2018 GMT
            Not After : Nov  4 15:37:22 2028 GMT
        Subject: CN = portal.eiscat-aarc.local
        Subject Public Key Info:
            Public Key Algorithm: rsaEncryption
                Public-Key: (2048 bit)
                Modulus:
                    00:d2:ef:77:f3:e6:82:6b:10:e3:e2:f4:f8:55:08:
                    2f:cf:67:78:28:f0:02:58:eb:4c:82:37:5f:40:b5:
                    a1:dd:d9:7e:bc:b1:de:86:e0:28:88:4b:49:35:fc:
                    ec:b0:76:7c:3c:11:a9:e9:6d:c9:dd:60:38:40:06:
                    8d:03:76:a9:40:ab:2a:46:0a:6d:db:c7:59:a1:bb:
                    d6:70:34:bb:5b:06:50:69:b1:ef:b1:06:81:64:76:
                    ec:b4:94:70:3c:f3:09:0b:21:0a:5d:7c:18:60:e2:
                    45:f3:cc:41:87:65:a0:54:2c:4a:63:ae:f1:7a:48:
                    16:af:30:46:7d:4d:fb:79:33:7d:d7:8f:46:f9:e5:
                    50:14:32:ff:fd:7d:68:e0:28:cd:c9:d1:d1:b8:ee:
                    c8:71:03:6f:89:e0:5a:e6:71:a3:8f:ec:e7:c4:6e:
                    25:ce:08:11:8f:f9:b0:c2:3e:76:64:7e:90:aa:67:
                    cf:2a:cc:3a:ec:90:d3:43:ac:81:a7:62:d4:6c:90:
                    56:17:63:2a:92:24:b7:37:c8:70:af:25:34:a6:87:
                    dd:83:06:7a:9a:a7:56:cd:1c:dc:6f:59:62:96:c8:
                    be:1e:9e:e9:2c:8e:b3:89:5c:48:a5:82:3a:5d:4e:
                    76:73:48:dd:a5:3b:d4:88:a8:ee:9b:c1:e1:31:9d:
                    40:8d
                Exponent: 65537 (0x10001)
        X509v3 extensions:
            X509v3 Subject Alternative Name: 
                DNS:portal.eiscat-aarc.local, URI:https://portal.eiscat-aarc.local/shibboleth
            X509v3 Subject Key Identifier: 
                80:16:5B:42:82:4F:BE:2A:92:88:BF:B0:C5:29:12:D4:75:24:47:D0
    Signature Algorithm: sha1WithRSAEncryption
         21:c5:24:b0:62:d4:30:7c:e2:2d:0b:15:e9:60:09:c6:a6:76:
         25:b2:3a:ff:68:46:bc:88:1a:67:bd:f1:70:84:3a:3e:7a:ae:
         c7:dd:49:bb:43:17:bc:f0:6f:57:c3:90:25:1b:0a:45:de:31:
         1c:ee:f8:df:8f:f0:1f:d8:84:d9:00:23:fb:3d:bb:22:2e:a4:
         62:3b:65:8e:85:bd:e8:8d:32:ca:1d:0f:2e:8b:42:5b:2a:ff:
         76:12:10:ad:4d:3f:a2:cd:9b:39:00:f8:2e:02:72:32:24:10:
         b1:46:a3:a6:50:39:38:06:f4:f5:b9:0c:88:dd:cc:71:63:03:
         94:aa:23:70:65:13:b2:73:3e:7c:31:bd:fb:cf:42:ab:49:7a:
         e6:67:d0:a4:dc:a6:fd:7f:96:ee:e1:14:63:cf:a3:9b:8b:14:
         d3:04:58:56:1b:a0:69:9f:ef:25:4e:ae:bf:01:39:f0:33:08:
         ec:9f:07:ee:2e:5c:35:b4:ad:d6:ff:99:db:9d:2c:01:34:e1:
         d0:6a:98:2b:3a:db:e6:83:97:ff:58:e5:1e:5e:c1:5e:fa:24:
         3d:66:7b:7d:be:11:93:83:6d:fe:48:cb:30:cc:5b:e5:b5:11:
         30:b9:17:c7:39:b0:78:df:5a:13:7f:a6:44:81:78:27:d2:bf:
         74:d1:ad:2f
-----BEGIN CERTIFICATE-----
MIIDPDCCAiSgAwIBAgIJAPQTYpsdcpiXMA0GCSqGSIb3DQEBBQUAMCMxITAfBgNV
BAMTGHBvcnRhbC5laXNjYXQtYWFyYy5sb2NhbDAeFw0xODExMDUxNTM3MjJaFw0y
ODExMDQxNTM3MjJaMCMxITAfBgNVBAMTGHBvcnRhbC5laXNjYXQtYWFyYy5sb2Nh
bDCCASIwDQYJKoZIhvcNAQEBBQADggEPADCCAQoCggEBANLvd/PmgmsQ4+L0+FUI
L89neCjwAljrTII3X0C1od3Zfryx3obgKIhLSTX87LB2fDwRqeltyd1gOEAGjQN2
qUCrKkYKbdvHWaG71nA0u1sGUGmx77EGgWR27LSUcDzzCQshCl18GGDiRfPMQYdl
oFQsSmOu8XpIFq8wRn1N+3kzfdePRvnlUBQy//19aOAozcnR0bjuyHEDb4ngWuZx
o4/s58RuJc4IEY/5sMI+dmR+kKpnzyrMOuyQ00Osgadi1GyQVhdjKpIktzfIcK8l
NKaH3YMGepqnVs0c3G9ZYpbIvh6e6SyOs4lcSKWCOl1OdnNI3aU71Iio7pvB4TGd
QI0CAwEAAaNzMHEwUAYDVR0RBEkwR4IYcG9ydGFsLmVpc2NhdC1hYXJjLmxvY2Fs
hitodHRwczovL3BvcnRhbC5laXNjYXQtYWFyYy5sb2NhbC9zaGliYm9sZXRoMB0G
A1UdDgQWBBSAFltCgk++KpKIv7DFKRLUdSRH0DANBgkqhkiG9w0BAQUFAAOCAQEA
IcUksGLUMHziLQsV6WAJxqZ2JbI6/2hGvIgaZ73xcIQ6Pnqux91Ju0MXvPBvV8OQ
JRsKRd4xHO7434/wH9iE2QAj+z27Ii6kYjtljoW96I0yyh0PLotCWyr/dhIQrU0/
os2bOQD4LgJyMiQQsUajplA5OAb09bkMiN3McWMDlKojcGUTsnM+fDG9+89Cq0l6
5mfQpNym/X+W7uEUY8+jm4sU0wRYVhugaZ/vJU6uvwE58DMI7J8H7i5cNbSt1v+Z
250sATTh0GqYKzrb5oOX/1jlHl7BXvokPWZ7fb4Rk4Nt/kjLMMxb5bURMLkXxzmw
eN9aE3+mRIF4J9K/dNGtLw==
-----END CERTIFICATE-----
